; Function Attrs: mustprogress uwtable
define void @_ZN14RtpAudioStream17formatDescriptionERK12QAudioFormat(ptr dead_on_unwind noalias writable sret(%class.QString) align 8 %0, ptr nocapture nonnull readnone align 8 %1, ptr nocapture noundef nonnull readonly align 8 dereferenceable(24) %2) local_unnamed_addr #0 align 2 personality ptr @__gxx_personality_v0 {
  %4 = alloca %class.QString, align 16
  %5 = alloca %class.QString, align 16
  call void @llvm.lifetime.start.p0(i64 24, ptr nonnull %4)
  call void @_ZN7QString8fromUtf8E14QByteArrayView(ptr dead_on_unwind nonnull writable sret(%class.QString) align 8 %4, i64 7, ptr nonnull @.str)
  %6 = load <2 x ptr>, ptr %4, align 16
  store <2 x ptr> %6, ptr %5, align 16
  %7 = getelementptr inbounds i8, ptr %5, i64 16
  %8 = getelementptr inbounds i8, ptr %4, i64 16
  %9 = load i64, ptr %8, align 16
  store i64 %9, ptr %7, align 16
  call void @llvm.lifetime.end.p0(i64 24, ptr nonnull %4)
  %10 = getelementptr inbounds i8, ptr %2, i64 8
  %11 = load i32, ptr %10, align 8
  %12 = sext i32 %11 to i64
  invoke void @_ZNK7QString3argExii5QChar(ptr dead_on_unwind writable sret(%class.QString) align 8 %0, ptr noundef nonnull align 8 dereferenceable(24) %5, i64 noundef %12, i32 noundef 0, i32 noundef 10, i16 32)
          to label %_ZNK7QString3argEiii5QChar.exit unwind label %19

_ZNK7QString3argEiii5QChar.exit:                  ; preds = %3
  %13 = load ptr, ptr %5, align 16
  %.not.i.i.i = icmp eq ptr %13, null
  br i1 %.not.i.i.i, label %_ZN7QStringD2Ev.exit, label %_ZN17QArrayDataPointerIDsE5derefEv.exit.i.i

_ZN17QArrayDataPointerIDsE5derefEv.exit.i.i:      ; preds = %_ZNK7QString3argEiii5QChar.exit
  %14 = atomicrmw sub ptr %13, i32 1 seq_cst, align 4
  %.not.i.i = icmp eq i32 %14, 1
  br i1 %.not.i.i, label %15, label %_ZN7QStringD2Ev.exit

15:                                               ; preds = %_ZN17QArrayDataPointerIDsE5derefEv.exit.i.i
  %16 = load ptr, ptr %5, align 16
  call void @_ZN10QArrayData10deallocateEPS_xx(ptr noundef %16, i64 noundef 2, i64 noundef 8) #25
  br label %_ZN7QStringD2Ev.exit

_ZN7QStringD2Ev.exit:                             ; preds = %_ZNK7QString3argEiii5QChar.exit, %_ZN17QArrayDataPointerIDsE5derefEv.exit.i.i, %15
  %17 = load i16, ptr %2, align 8
  %switch.tableidx = add i16 %17, -1
  %18 = icmp ult i16 %switch.tableidx, 4
  br i1 %18, label %switch.lookup, label %.invoke

19:                                               ; preds = %3
  %20 = landingpad { ptr, i32 }
          cleanup
  %21 = load ptr, ptr %5, align 16
  %.not.i.i.i6 = icmp eq ptr %21, null
  br i1 %.not.i.i.i6, label %_ZN7QStringD2Ev.exit9, label %_ZN17QArrayDataPointerIDsE5derefEv.exit.i.i7

_ZN17QArrayDataPointerIDsE5derefEv.exit.i.i7:     ; preds = %19
  %22 = atomicrmw sub ptr %21, i32 1 seq_cst, align 4
  %.not.i.i8 = icmp eq i32 %22, 1
  br i1 %.not.i.i8, label %23, label %_ZN7QStringD2Ev.exit9

23:                                               ; preds = %_ZN17QArrayDataPointerIDsE5derefEv.exit.i.i7
  %24 = load ptr, ptr %5, align 16
  call void @_ZN10QArrayData10deallocateEPS_xx(ptr noundef %24, i64 noundef 2, i64 noundef 8) #25
  br label %_ZN7QStringD2Ev.exit9

25:                                               ; preds = %.invoke
  %26 = landingpad { ptr, i32 }
          cleanup
  call void @_ZN7QStringD2Ev(ptr noundef nonnull align 8 dereferenceable(24) %0) #25
  br label %_ZN7QStringD2Ev.exit9

switch.lookup:                                    ; preds = %_ZN7QStringD2Ev.exit
  %27 = zext nneg i16 %switch.tableidx to i64
  %switch.gep = getelementptr inbounds [4 x ptr], ptr @switch.table._ZN14RtpAudioStream17formatDescriptionERK12QAudioFormat, i64 0, i64 %27
  %switch.load = load ptr, ptr %switch.gep, align 8
  br label %.invoke

.invoke:                                          ; preds = %_ZN7QStringD2Ev.exit, %switch.lookup
  %28 = phi ptr [ %switch.load, %switch.lookup ], [ @.str.5, %_ZN7QStringD2Ev.exit ]
  %29 = invoke noundef nonnull align 8 dereferenceable(24) ptr @_ZN7QStringpLEPKc(ptr noundef nonnull align 8 dereferenceable(24) %0, ptr noundef nonnull %28)
          to label %30 unwind label %25

30:                                               ; preds = %.invoke
  ret void

_ZN7QStringD2Ev.exit9:                            ; preds = %23, %_ZN17QArrayDataPointerIDsE5derefEv.exit.i.i7, %19, %25
  %.pn = phi { ptr, i32 } [ %26, %25 ], [ %20, %19 ], [ %20, %_ZN17QArrayDataPointerIDsE5derefEv.exit.i.i7 ], [ %20, %23 ]
  resume { ptr, i32 } %.pn
}